BL51 BANKED LINKER/LOCATER V6.22.2.0                                                    03/11/2024  13:37:46  PAGE 1


BL51 BANKED LINKER/LOCATER V6.22.2.0, INVOKED BY:
D:\UV4\C51\BIN\BL51.EXE .\Objects\STARTUP.obj, .\Objects\main.obj, .\Objects\Timer.obj, .\Objects\Device.obj, .\Objects\
>> iic.obj, .\Objects\onewire.obj, .\Objects\SEG.obj, .\Objects\KBD.obj, .\Objects\Ds1302.obj, .\Objects\ADDA.obj, .\Obj
>> ects\Ds18B20.obj TO .\Objects\LQ_Ys PRINT (.\Listings\LQ_Ys.m51) RAMSIZE (256)


MEMORY MODEL: LARGE WITH FLOATING POINT ARITHMETIC


INPUT MODULES INCLUDED:
  .\Objects\STARTUP.obj (?C_STARTUP)
  .\Objects\main.obj (MAIN)
  .\Objects\Timer.obj (TIMER)
  .\Objects\Device.obj (DEVICE)
  .\Objects\iic.obj (IIC)
  .\Objects\onewire.obj (ONEWIRE)
  .\Objects\SEG.obj (SEG)
  .\Objects\KBD.obj (KBD)
  .\Objects\Ds1302.obj (DS1302)
  .\Objects\ADDA.obj (ADDA)
  .\Objects\Ds18B20.obj (DS18B20)
  D:\UV4\C51\LIB\C51FPL.LIB (?C?FPADD)
  D:\UV4\C51\LIB\C51FPL.LIB (?C?FPMUL)
  D:\UV4\C51\LIB\C51FPL.LIB (?C?FPDIV)
  D:\UV4\C51\LIB\C51FPL.LIB (?C?FCAST)
  D:\UV4\C51\LIB\C51FPL.LIB (?C?CASTF)
  D:\UV4\C51\LIB\C51FPL.LIB (?C?FPGETOPN)
  D:\UV4\C51\LIB\C51L.LIB (?C_INIT)
  D:\UV4\C51\LIB\C51L.LIB (?C?CLDOPTR)
  D:\UV4\C51\LIB\C51L.LIB (?C?CSTOPTR)
  D:\UV4\C51\LIB\C51L.LIB (?C?LNEG)
  D:\UV4\C51\LIB\C51L.LIB (?C?LSTXDATA)
  D:\UV4\C51\LIB\C51L.LIB (?C?LSTKXDATA)


LINK MAP OF MODULE:  .\Objects\LQ_Ys (?C_STARTUP)


            TYPE    BASE      LENGTH    RELOCATION   SEGMENT NAME
            -----------------------------------------------------

            * * * * * * *   D A T A   M E M O R Y   * * * * * * *
            REG     0000H     0008H     ABSOLUTE     "REG BANK 0"
            DATA    0008H     0003H     UNIT         _DATA_GROUP_
                    000BH     0015H                  *** GAP ***
            BIT     0020H.0   0001H.0   UNIT         ?BI?MAIN
            BIT     0021H.0   0000H.1   UNIT         _BIT_GROUP_
                    0021H.1   0000H.7                *** GAP ***
            IDATA   0022H     0001H     UNIT         ?STACK

            * * * * * * *  X D A T A   M E M O R Y  * * * * * * *
            XDATA   0000H     00E6H     UNIT         ?XD?MAIN
            XDATA   00E6H     000CH     UNIT         _XDATA_GROUP_
            XDATA   00F2H     0009H     UNIT         ?XD?SEG
            XDATA   00FBH     0002H     UNIT         ?XD?KBD

            * * * * * * *   C O D E   M E M O R Y   * * * * * * *
            CODE    0000H     0003H     ABSOLUTE     
BL51 BANKED LINKER/LOCATER V6.22.2.0                                                  03/11/2024  13:37:46  PAGE 2


            CODE    0003H     0017H     UNIT         ?PR?DEVICE_INIT?DEVICE
                    001AH     0001H                  *** GAP ***
            CODE    001BH     0003H     ABSOLUTE     
            CODE    001EH     0044H     UNIT         ?PR?MAIN?MAIN
                    0062H     0001H                  *** GAP ***
            CODE    0063H     0003H     ABSOLUTE     
            CODE    0066H     03F7H     UNIT         ?C?LIB_CODE
            CODE    045DH     034DH     UNIT         ?PR?SEG_PROCESS?MAIN
            CODE    07AAH     01C0H     UNIT         ?PR?MINFO_PROCESS?MAIN
            CODE    096AH     00DAH     UNIT         ?PR?T1ISR?MAIN
            CODE    0A44H     00D7H     UNIT         ?PR?T2ISR?MAIN
            CODE    0B1BH     00CBH     UNIT         ?PR?KBD_PROCESS?MAIN
            CODE    0BE6H     008CH     UNIT         ?C_C51STARTUP
            CODE    0C72H     0088H     UNIT         ?PR?MCOLLECT_PROCESS?MAIN
            CODE    0CFAH     0076H     UNIT         ?PR?LED_PROCESS?MAIN
            CODE    0D70H     0059H     UNIT         ?C_INITSEG
            CODE    0DC9H     0048H     UNIT         ?PR?_DS1302_SET?DS1302
            CODE    0E11H     0043H     UNIT         ?PR?MWET_PROCESS?MAIN
            CODE    0E54H     003DH     UNIT         ?PR?_READ_DS1302_BYTE?DS1302
            CODE    0E91H     003CH     UNIT         ?PR?_AD_READ?ADDA
            CODE    0ECDH     003CH     UNIT         ?PR?READ_TEMPER?DS18B20
            CODE    0F09H     003BH     UNIT         ?PR?_DS1302_READ?DS1302
            CODE    0F44H     0039H     UNIT         ?PR?SEG_DISPLAY?SEG
            CODE    0F7DH     0035H     UNIT         ?PR?_I2CSENDBYTE?IIC
            CODE    0FB2H     002BH     UNIT         ?PR?KBD_IO?KBD
            CODE    0FDDH     0027H     UNIT         ?PR?_WRITE_DS18B20?ONEWIRE
            CODE    1004H     0027H     UNIT         ?PR?INIT_DS18B20?ONEWIRE
            CODE    102BH     0026H     UNIT         ?PR?I2CRECEIVEBYTE?IIC
            CODE    1051H     0023H     UNIT         ?PR?READ_DS18B20?ONEWIRE
            CODE    1074H     001EH     UNIT         ?PR?_DELAY_ONEWIRE?ONEWIRE
            CODE    1092H     001CH     UNIT         ?PR?_WRITE_DS1302?DS1302
            CODE    10AEH     0017H     UNIT         ?PR?I2CSENDACK?IIC
            CODE    10C5H     0016H     UNIT         ?PR?KBD_READ?KBD
            CODE    10DBH     0015H     UNIT         ?PR?DELAY750MS?MAIN
            CODE    10F0H     0014H     UNIT         ?PR?_WRITE_DS1302_BYTE?DS1302
            CODE    1104H     0013H     UNIT         ?PR?TIMER0_INIT?TIMER
            CODE    1117H     0012H     UNIT         ?PR?I2CWAITACK?IIC
            CODE    1129H     0011H     UNIT         ?PR?MTIME_PROCESS?MAIN
            CODE    113AH     0011H     UNIT         ?PR?TIMER1_INIT?TIMER
            CODE    114BH     0010H     UNIT         ?CO?SEG
            CODE    115BH     000FH     UNIT         ?PR?_DEVICE_CTRL?DEVICE
            CODE    116AH     000FH     UNIT         ?PR?I2CSTART?IIC
            CODE    1179H     000DH     UNIT         ?PR?TIMER2_INIT?TIMER
            CODE    1186H     000CH     UNIT         ?PR?_I2C_DELAY?IIC
            CODE    1192H     000CH     UNIT         ?PR?I2CSTOP?IIC



OVERLAY MAP OF MODULE:   .\Objects\LQ_Ys (?C_STARTUP)


SEGMENT                                  BIT_GROUP          DATA_GROUP          XDATA_GROUP
  +--> CALLED SEGMENT                 START    LENGTH     START    LENGTH     START    LENGTH
---------------------------------------------------------------------------------------------
?C_C51STARTUP                         -----    -----      -----    -----      -----    -----
  +--> ?PR?MAIN?MAIN
  +--> ?C_INITSEG
BL51 BANKED LINKER/LOCATER V6.22.2.0                                                  03/11/2024  13:37:46  PAGE 3



?PR?MAIN?MAIN                         -----    -----      -----    -----      -----    -----
  +--> ?PR?READ_TEMPER?DS18B20
  +--> ?PR?MWET_PROCESS?MAIN
  +--> ?PR?DELAY750MS?MAIN
  +--> ?PR?TIMER0_INIT?TIMER
  +--> ?PR?TIMER1_INIT?TIMER
  +--> ?PR?TIMER2_INIT?TIMER
  +--> ?PR?DEVICE_INIT?DEVICE
  +--> ?PR?_DS1302_SET?DS1302
  +--> ?PR?KBD_PROCESS?MAIN
  +--> ?PR?SEG_PROCESS?MAIN
  +--> ?PR?LED_PROCESS?MAIN
  +--> ?PR?MTIME_PROCESS?MAIN
  +--> ?PR?MCOLLECT_PROCESS?MAIN
  +--> ?PR?MINFO_PROCESS?MAIN

?PR?READ_TEMPER?DS18B20               -----    -----      -----    -----      00E6H    0001H
  +--> ?PR?INIT_DS18B20?ONEWIRE
  +--> ?PR?_WRITE_DS18B20?ONEWIRE
  +--> ?PR?READ_DS18B20?ONEWIRE

?PR?INIT_DS18B20?ONEWIRE              0021H.0  0000H.1    -----    -----      -----    -----
  +--> ?PR?_DELAY_ONEWIRE?ONEWIRE

?PR?_WRITE_DS18B20?ONEWIRE            -----    -----      -----    -----      -----    -----
  +--> ?PR?_DELAY_ONEWIRE?ONEWIRE

?PR?READ_DS18B20?ONEWIRE              -----    -----      -----    -----      -----    -----
  +--> ?PR?_DELAY_ONEWIRE?ONEWIRE

?PR?DELAY750MS?MAIN                   -----    -----      0008H    0003H      -----    -----

?PR?DEVICE_INIT?DEVICE                -----    -----      -----    -----      -----    -----
  +--> ?PR?_DEVICE_CTRL?DEVICE

?PR?_DS1302_SET?DS1302                -----    -----      -----    -----      00E6H    0003H
  +--> ?PR?_WRITE_DS1302_BYTE?DS1302

?PR?_WRITE_DS1302_BYTE?DS1302         -----    -----      -----    -----      -----    -----
  +--> ?PR?_WRITE_DS1302?DS1302

?PR?KBD_PROCESS?MAIN                  -----    -----      -----    -----      -----    -----
  +--> ?PR?KBD_READ?KBD

?PR?KBD_READ?KBD                      -----    -----      -----    -----      -----    -----
  +--> ?PR?KBD_IO?KBD

?PR?SEG_PROCESS?MAIN                  -----    -----      -----    -----      00E6H    0001H
  +--> ?CO?SEG

?PR?LED_PROCESS?MAIN                  -----    -----      -----    -----      -----    -----
  +--> ?PR?_DEVICE_CTRL?DEVICE

?PR?MTIME_PROCESS?MAIN                -----    -----      -----    -----      -----    -----
  +--> ?PR?_DS1302_READ?DS1302

BL51 BANKED LINKER/LOCATER V6.22.2.0                                                  03/11/2024  13:37:46  PAGE 4


?PR?_DS1302_READ?DS1302               -----    -----      -----    -----      00E6H    0003H
  +--> ?PR?_READ_DS1302_BYTE?DS1302

?PR?_READ_DS1302_BYTE?DS1302          -----    -----      -----    -----      -----    -----
  +--> ?PR?_WRITE_DS1302?DS1302

?PR?MCOLLECT_PROCESS?MAIN             -----    -----      -----    -----      -----    -----
  +--> ?PR?_AD_READ?ADDA
  +--> ?PR?READ_TEMPER?DS18B20
  +--> ?PR?MWET_PROCESS?MAIN

?PR?_AD_READ?ADDA                     -----    -----      -----    -----      00E6H    0002H
  +--> ?PR?I2CSTART?IIC
  +--> ?PR?_I2CSENDBYTE?IIC
  +--> ?PR?I2CWAITACK?IIC
  +--> ?PR?I2CRECEIVEBYTE?IIC
  +--> ?PR?I2CSENDACK?IIC
  +--> ?PR?I2CSTOP?IIC

?PR?I2CSTART?IIC                      -----    -----      -----    -----      -----    -----
  +--> ?PR?_I2C_DELAY?IIC

?PR?_I2CSENDBYTE?IIC                  -----    -----      -----    -----      -----    -----
  +--> ?PR?_I2C_DELAY?IIC

?PR?I2CWAITACK?IIC                    -----    -----      -----    -----      -----    -----
  +--> ?PR?_I2C_DELAY?IIC

?PR?I2CRECEIVEBYTE?IIC                -----    -----      -----    -----      -----    -----
  +--> ?PR?_I2C_DELAY?IIC

?PR?I2CSENDACK?IIC                    0021H.0  0000H.1    -----    -----      -----    -----
  +--> ?PR?_I2C_DELAY?IIC

?PR?I2CSTOP?IIC                       -----    -----      -----    -----      -----    -----
  +--> ?PR?_I2C_DELAY?IIC

?PR?MINFO_PROCESS?MAIN                -----    -----      -----    -----      00E6H    000CH

*** NEW ROOT ***************************************************

?PR?T1ISR?MAIN                        -----    -----      -----    -----      -----    -----
  +--> ?PR?SEG_DISPLAY?SEG

?PR?SEG_DISPLAY?SEG                   -----    -----      -----    -----      -----    -----
  +--> ?PR?_DEVICE_CTRL?DEVICE



SYMBOL TABLE OF MODULE:  .\Objects\LQ_Ys (?C_STARTUP)

  VALUE           TYPE          NAME
  ----------------------------------

  -------         MODULE        ?C_STARTUP
  C:0BE6H         SEGMENT       ?C_C51STARTUP
  I:0022H         SEGMENT       ?STACK
BL51 BANKED LINKER/LOCATER V6.22.2.0                                                  03/11/2024  13:37:46  PAGE 5


  C:0000H         PUBLIC        ?C_STARTUP
  D:00E0H         SYMBOL        ACC
  D:00F0H         SYMBOL        B
  D:0083H         SYMBOL        DPH
  D:0082H         SYMBOL        DPL
  N:0000H         SYMBOL        IBPSTACK
  N:0100H         SYMBOL        IBPSTACKTOP
  N:0080H         SYMBOL        IDATALEN
  C:0BE9H         SYMBOL        IDATALOOP
  N:0000H         SYMBOL        PBPSTACK
  N:0100H         SYMBOL        PBPSTACKTOP
  N:0000H         SYMBOL        PDATALEN
  N:0000H         SYMBOL        PDATASTART
  N:0000H         SYMBOL        PPAGE
  N:0000H         SYMBOL        PPAGEENABLE
  D:00A0H         SYMBOL        PPAGE_SFR
  D:0081H         SYMBOL        SP
  C:0BE6H         SYMBOL        STARTUP1
  N:0000H         SYMBOL        XBPSTACK
  N:0000H         SYMBOL        XBPSTACKTOP
  N:0000H         SYMBOL        XDATALEN
  N:0000H         SYMBOL        XDATASTART
  C:0000H         LINE#         126
  C:0BE6H         LINE#         133
  C:0BE8H         LINE#         134
  C:0BE9H         LINE#         135
  C:0BEAH         LINE#         136
  C:0BECH         LINE#         185
  C:0BEFH         LINE#         196
  -------         ENDMOD        ?C_STARTUP

  -------         MODULE        MAIN
  C:0000H         SYMBOL        _ICE_DUMMY_
  B:0020H.2       PUBLIC        cflag
  D:0080H         PUBLIC        P0
  X:0001H         PUBLIC        eindex
  D:0090H         PUBLIC        P1
  X:0002H         PUBLIC        edata
  D:00A0H         PUBLIC        P2
  D:00B0H         PUBLIC        P3
  D:00C0H         PUBLIC        P4
  B:0020H.3       PUBLIC        newtemp
  D:00C8H         PUBLIC        P5
  D:00E8H         PUBLIC        P6
  D:00F8H         PUBLIC        P7
  D:00A8H         PUBLIC        IE
  B:0020H.4       PUBLIC        flash
  C:0B1BH         PUBLIC        KBD_Process
  X:00C8H         PUBLIC        etime
  D:00B8H         PUBLIC        IP
  C:0CFAH         PUBLIC        LED_Process
  B:0020H.5       PUBLIC        light
  C:045DH         PUBLIC        SEG_Process
  D:00D8H         PUBLIC        CCON
  C:001EH         PUBLIC        main
  X:00CAH         PUBLIC        mode
  X:00CBH         PUBLIC        ptemp
BL51 BANKED LINKER/LOCATER V6.22.2.0                                                  03/11/2024  13:37:46  PAGE 6


  X:00CCH         PUBLIC        fcnt
  X:00CDH         PUBLIC        freq
  B:0020H.6       PUBLIC        icnt
  X:00CFH         PUBLIC        time
  X:00D2H         PUBLIC        mcnt
  D:0098H         PUBLIC        SCON
  D:0088H         PUBLIC        TCON
  X:00D3H         PUBLIC        led
  C:07AAH         PUBLIC        mInfo_Process
  C:1129H         PUBLIC        mTime_Process
  D:008CH         PUBLIC        TH0
  D:008AH         PUBLIC        TL0
  X:00D4H         PUBLIC        tem_aver
  X:00D8H         PUBLIC        time_cnt
  X:00D9H         PUBLIC        kbd_cnt
  X:00DAH         PUBLIC        led_cnt
  X:00DBH         PUBLIC        modetemp
  X:00DCH         PUBLIC        wet_aver
  C:0E11H         PUBLIC        mWet_Process
  B:0020H.7       PUBLIC        up
  X:00E0H         PUBLIC        mcd1
  X:00E1H         PUBLIC        Timer_1000Ms
  X:00E2H         PUBLIC        mcd2
  X:00E3H         PUBLIC        seg_cnt
  X:00E4H         PUBLIC        tem_max
  C:10DBH         PUBLIC        Delay750ms
  C:096AH         PUBLIC        T1ISR
  C:0A44H         PUBLIC        T2ISR
  X:00E5H         PUBLIC        wet_max
  D:00D0H         PUBLIC        PSW
  C:0C72H         PUBLIC        mCollect_Process
  -------         PROC          MTIME_PROCESS
  C:1129H         LINE#         33
  C:1129H         LINE#         34
  C:1129H         LINE#         35
  C:112FH         LINE#         36
  C:1131H         LINE#         38
  C:1139H         LINE#         39
  -------         ENDPROC       MTIME_PROCESS
  -------         PROC          MWET_PROCESS
  -------         DO            
  D:0004H         SYMBOL        w
  -------         ENDDO         
  C:0E11H         LINE#         41
  C:0E11H         LINE#         42
  C:0E11H         LINE#         44
  C:0E2AH         LINE#         45
  C:0E4EH         LINE#         46
  C:0E51H         LINE#         47
  C:0E51H         LINE#         49
  C:0E53H         LINE#         50
  -------         ENDPROC       MWET_PROCESS
  -------         PROC          MCOLLECT_PROCESS
  C:0C72H         LINE#         52
  C:0C72H         LINE#         53
  C:0C72H         LINE#         54
  C:0C7BH         LINE#         55
BL51 BANKED LINKER/LOCATER V6.22.2.0                                                  03/11/2024  13:37:46  PAGE 7


  C:0C7DH         LINE#         57
  C:0C82H         LINE#         58
  C:0C91H         LINE#         59
  C:0C94H         LINE#         61
  C:0C94H         LINE#         63
  C:0CA6H         LINE#         64
  C:0CA8H         LINE#         65
  C:0CAAH         LINE#         66
  C:0CB2H         LINE#         67
  C:0CB8H         LINE#         69
  C:0CCFH         LINE#         70
  C:0CE3H         LINE#         71
  C:0CE9H         LINE#         72
  C:0CF1H         LINE#         73
  C:0CF9H         LINE#         75
  C:0CF9H         LINE#         76
  -------         ENDPROC       MCOLLECT_PROCESS
  -------         PROC          MINFO_PROCESS
  -------         DO            
  B:0020H.0       SYMBOL        iflag
  X:00E6H         SYMBOL        i
  X:00E7H         SYMBOL        max1
  X:00E8H         SYMBOL        max2
  X:00E9H         SYMBOL        ninfo
  X:00EAH         SYMBOL        sum1
  X:00EEH         SYMBOL        sum2
  -------         ENDDO         
  C:07AAH         LINE#         78
  C:07AAH         LINE#         79
  C:07AAH         LINE#         82
  C:07AFH         LINE#         83
  C:07B1H         LINE#         84
  C:07B3H         LINE#         85
  C:07BBH         LINE#         86
  C:07C5H         LINE#         88
  C:07D3H         LINE#         89
  C:07D5H         LINE#         91
  C:07EBH         LINE#         92
  C:07FCH         LINE#         93
  C:0802H         LINE#         94
  C:0805H         LINE#         95
  C:0805H         LINE#         96
  C:083AH         LINE#         97
  C:0855H         LINE#         98
  C:0857H         LINE#         99
  C:088CH         LINE#         100
  C:08A7H         LINE#         101
  C:08A9H         LINE#         102
  C:08B2H         LINE#         103
  C:08C5H         LINE#         104
  C:08F4H         LINE#         105
  C:08FCH         LINE#         106
  C:093AH         LINE#         107
  C:093EH         LINE#         108
  C:0940H         LINE#         109
  C:0940H         LINE#         110
  C:094AH         LINE#         111
BL51 BANKED LINKER/LOCATER V6.22.2.0                                                  03/11/2024  13:37:46  PAGE 8


  C:094FH         LINE#         112
  C:0959H         LINE#         113
  C:095EH         LINE#         114
  C:095EH         LINE#         115
  C:095FH         LINE#         116
  C:0969H         LINE#         117
  C:0969H         LINE#         118
  -------         ENDPROC       MINFO_PROCESS
  -------         PROC          KBD_PROCESS
  -------         DO            
  X:0000H         SYMBOL        pcnt
  B:0020H.1       SYMBOL        flag
  -------         ENDDO         
  C:0B1BH         LINE#         121
  C:0B1BH         LINE#         122
  C:0B1BH         LINE#         125
  C:0B24H         LINE#         126
  C:0B26H         LINE#         128
  C:0B29H         LINE#         130
  C:0B34H         LINE#         131
  C:0B47H         LINE#         132
  C:0B4CH         LINE#         133
  C:0B4CH         LINE#         134
  C:0B4CH         LINE#         135
  C:0B53H         LINE#         136
  C:0B5AH         LINE#         137
  C:0B5AH         LINE#         139
  C:0B5AH         LINE#         141
  C:0B75H         LINE#         142
  C:0B82H         LINE#         143
  C:0B86H         LINE#         145
  C:0B86H         LINE#         147
  C:0B9AH         LINE#         148
  C:0BB0H         LINE#         150
  C:0BC0H         LINE#         151
  C:0BC6H         LINE#         152
  C:0BD0H         LINE#         153
  C:0BD2H         LINE#         154
  C:0BD4H         LINE#         155
  C:0BD4H         LINE#         156
  C:0BD6H         LINE#         157
  C:0BDBH         LINE#         158
  C:0BDEH         LINE#         159
  C:0BE0H         LINE#         160
  C:0BE5H         LINE#         161
  C:0BE5H         LINE#         162
  -------         ENDPROC       KBD_PROCESS
  -------         PROC          SEG_PROCESS
  -------         DO            
  X:00E6H         SYMBOL        i
  X:00E6H         SYMBOL        i
  X:00E6H         SYMBOL        i
  -------         ENDDO         
  -------         DO            
  X:00E6H         SYMBOL        i
  X:00E6H         SYMBOL        i
  -------         ENDDO         
BL51 BANKED LINKER/LOCATER V6.22.2.0                                                  03/11/2024  13:37:46  PAGE 9


  -------         DO            
  X:00E6H         SYMBOL        i
  -------         ENDDO         
  C:045DH         LINE#         164
  C:045DH         LINE#         165
  C:045DH         LINE#         166
  C:0466H         LINE#         167
  C:0468H         LINE#         169
  C:048FH         LINE#         170
  C:048FH         LINE#         171
  C:049FH         LINE#         172
  C:04AAH         LINE#         173
  C:04AEH         LINE#         174
  C:04BEH         LINE#         175
  C:04C9H         LINE#         176
  C:04CDH         LINE#         177
  C:04D0H         LINE#         178
  C:04D0H         LINE#         179
  C:04D3H         LINE#         181
  C:04D3H         LINE#         183
  C:04DCH         LINE#         184
  C:04E2H         LINE#         185
  C:04F8H         LINE#         186
  C:0505H         LINE#         187
  C:050DH         LINE#         188
  C:050DH         LINE#         189
  C:050DH         LINE#         190
  C:0513H         LINE#         191
  C:052AH         LINE#         192
  C:0539H         LINE#         193
  C:053DH         LINE#         194
  C:0561H         LINE#         195
  C:0572H         LINE#         196
  C:057CH         LINE#         197
  C:057CH         LINE#         198
  C:057FH         LINE#         200
  C:057FH         LINE#         202
  C:0585H         LINE#         203
  C:058BH         LINE#         204
  C:05A1H         LINE#         205
  C:05AEH         LINE#         206
  C:05B6H         LINE#         207
  C:05B6H         LINE#         208
  C:05B6H         LINE#         209
  C:05BCH         LINE#         210
  C:05D3H         LINE#         211
  C:05E2H         LINE#         212
  C:05E6H         LINE#         213
  C:060AH         LINE#         214
  C:061BH         LINE#         215
  C:0636H         LINE#         216
  C:0636H         LINE#         217
  C:0639H         LINE#         219
  C:0639H         LINE#         221
  C:0642H         LINE#         222
  C:0659H         LINE#         223
  C:0668H         LINE#         224
BL51 BANKED LINKER/LOCATER V6.22.2.0                                                  03/11/2024  13:37:46  PAGE 10


  C:066EH         LINE#         225
  C:0685H         LINE#         226
  C:0692H         LINE#         227
  C:069AH         LINE#         228
  C:069AH         LINE#         229
  C:069AH         LINE#         230
  C:06AAH         LINE#         231
  C:06B5H         LINE#         232
  C:06B9H         LINE#         233
  C:06C9H         LINE#         234
  C:06CCH         LINE#         235
  C:06CCH         LINE#         236
  C:06CFH         LINE#         238
  C:06CFH         LINE#         239
  C:06D5H         LINE#         240
  C:06D9H         LINE#         241
  C:06DBH         LINE#         242
  C:06DDH         LINE#         243
  C:06DFH         LINE#         244
  C:06E1H         LINE#         245
  C:06F8H         LINE#         246
  C:06FFH         LINE#         247
  C:0702H         LINE#         249
  C:0702H         LINE#         250
  C:070BH         LINE#         251
  C:070FH         LINE#         252
  C:0711H         LINE#         253
  C:0735H         LINE#         254
  C:0744H         LINE#         255
  C:0748H         LINE#         256
  C:075CH         LINE#         257
  C:077CH         LINE#         258
  C:0783H         LINE#         259
  C:0785H         LINE#         260
  C:0785H         LINE#         261
  C:079EH         LINE#         262
  C:07A9H         LINE#         263
  C:07A9H         LINE#         264
  C:07A9H         LINE#         266
  C:07A9H         LINE#         267
  -------         ENDPROC       SEG_PROCESS
  -------         PROC          LED_PROCESS
  C:0CFAH         LINE#         269
  C:0CFAH         LINE#         270
  C:0CFAH         LINE#         271
  C:0D00H         LINE#         272
  C:0D02H         LINE#         275
  C:0D15H         LINE#         276
  C:0D1DH         LINE#         277
  C:0D1DH         LINE#         278
  C:0D1DH         LINE#         279
  C:0D25H         LINE#         280
  C:0D2DH         LINE#         281
  C:0D33H         LINE#         282
  C:0D33H         LINE#         284
  C:0D3AH         LINE#         285
  C:0D3FH         LINE#         287
BL51 BANKED LINKER/LOCATER V6.22.2.0                                                  03/11/2024  13:37:46  PAGE 11


  C:0D40H         LINE#         289
  C:0D54H         LINE#         290
  C:0D5BH         LINE#         292
  C:0D5EH         LINE#         293
  C:0D65H         LINE#         295
  C:0D6FH         LINE#         296
  -------         ENDPROC       LED_PROCESS
  -------         PROC          DELAY750MS
  -------         DO            
  D:0008H         SYMBOL        i
  D:0009H         SYMBOL        j
  D:000AH         SYMBOL        k
  -------         ENDDO         
  C:10DBH         LINE#         298
  C:10DBH         LINE#         299
  C:10DBH         LINE#         302
  C:10DCH         LINE#         303
  C:10DDH         LINE#         304
  C:10E0H         LINE#         305
  C:10E3H         LINE#         306
  C:10E6H         LINE#         308
  C:10E6H         LINE#         310
  C:10E6H         LINE#         311
  C:10E9H         LINE#         312
  C:10ECH         LINE#         313
  C:10EFH         LINE#         314
  -------         ENDPROC       DELAY750MS
  -------         PROC          MAIN
  C:001EH         LINE#         316
  C:001EH         LINE#         317
  C:001EH         LINE#         318
  C:0021H         LINE#         319
  C:0024H         LINE#         320
  C:0027H         LINE#         322
  C:002AH         LINE#         323
  C:002DH         LINE#         324
  C:0030H         LINE#         325
  C:0033H         LINE#         326
  C:003CH         LINE#         328
  C:003CH         LINE#         329
  C:003CH         LINE#         330
  C:003FH         LINE#         331
  C:0042H         LINE#         332
  C:0045H         LINE#         334
  C:0048H         LINE#         335
  C:004DH         LINE#         336
  C:0050H         LINE#         337
  C:0053H         LINE#         338
  C:0056H         LINE#         339
  C:0058H         LINE#         340
  C:0058H         LINE#         342
  C:005BH         LINE#         343
  C:005DH         LINE#         344
  C:0060H         LINE#         345
  C:0060H         LINE#         346
  -------         ENDPROC       MAIN
  -------         PROC          T1ISR
BL51 BANKED LINKER/LOCATER V6.22.2.0                                                  03/11/2024  13:37:46  PAGE 12


  C:096AH         LINE#         349
  C:0987H         LINE#         351
  C:098AH         LINE#         353
  C:099BH         LINE#         354
  C:09ACH         LINE#         355
  C:09BDH         LINE#         356
  C:09CEH         LINE#         358
  C:09DFH         LINE#         359
  C:09E2H         LINE#         360
  C:09E8H         LINE#         361
  C:09F2H         LINE#         362
  C:09F4H         LINE#         363
  C:09FAH         LINE#         364
  C:0A03H         LINE#         365
  C:0A05H         LINE#         366
  C:0A1FH         LINE#         367
  C:0A21H         LINE#         368
  C:0A29H         LINE#         369
  C:0A29H         LINE#         370
  C:0A29H         LINE#         371
  C:0A29H         LINE#         372
  -------         ENDPROC       T1ISR
  -------         PROC          T2ISR
  C:0A44H         LINE#         374
  C:0A55H         LINE#         376
  C:0A74H         LINE#         377
  C:0A78H         LINE#         378
  C:0A81H         LINE#         379
  C:0A83H         LINE#         380
  C:0A85H         LINE#         381
  C:0A85H         LINE#         382
  C:0A87H         LINE#         383
  C:0A8EH         LINE#         385
  C:0A9DH         LINE#         386
  C:0A9FH         LINE#         387
  C:0AAEH         LINE#         388
  C:0AB1H         LINE#         389
  C:0AB4H         LINE#         390
  C:0AB6H         LINE#         391
  C:0AB8H         LINE#         392
  C:0AC4H         LINE#         393
  C:0B06H         LINE#         394
  C:0B0AH         LINE#         396
  C:0B0CH         LINE#         397
  C:0B0CH         LINE#         398
  C:0B0CH         LINE#         399
  -------         ENDPROC       T2ISR
  -------         ENDMOD        MAIN

  -------         MODULE        TIMER
  C:0000H         SYMBOL        _ICE_DUMMY_
  D:0080H         PUBLIC        P0
  D:0090H         PUBLIC        P1
  D:00A0H         PUBLIC        P2
  D:00B0H         PUBLIC        P3
  D:00C0H         PUBLIC        P4
  D:00C8H         PUBLIC        P5
BL51 BANKED LINKER/LOCATER V6.22.2.0                                                  03/11/2024  13:37:46  PAGE 13


  D:00E8H         PUBLIC        P6
  D:00F8H         PUBLIC        P7
  D:00A8H         PUBLIC        IE
  D:00B8H         PUBLIC        IP
  D:00D8H         PUBLIC        CCON
  C:1104H         PUBLIC        Timer0_Init
  C:113AH         PUBLIC        Timer1_Init
  C:1179H         PUBLIC        Timer2_Init
  D:0098H         PUBLIC        SCON
  D:0089H         PUBLIC        TMOD
  D:0088H         PUBLIC        TCON
  D:008EH         PUBLIC        AUXR
  B:0088H.5       PUBLIC        TF0
  B:0088H.7       PUBLIC        TF1
  D:008CH         PUBLIC        TH0
  D:008DH         PUBLIC        TH1
  D:00D6H         PUBLIC        T2H
  D:008AH         PUBLIC        TL0
  D:008BH         PUBLIC        TL1
  D:00D7H         PUBLIC        T2L
  B:0088H.4       PUBLIC        TR0
  B:0088H.6       PUBLIC        TR1
  D:00D0H         PUBLIC        PSW
  -------         PROC          TIMER0_INIT
  C:1104H         LINE#         3
  C:1104H         LINE#         4
  C:1104H         LINE#         5
  C:1107H         LINE#         6
  C:110AH         LINE#         7
  C:110DH         LINE#         8
  C:1110H         LINE#         9
  C:1112H         LINE#         10
  C:1114H         LINE#         11
  C:1116H         LINE#         12
  -------         ENDPROC       TIMER0_INIT
  -------         PROC          TIMER1_INIT
  C:113AH         LINE#         14
  C:113AH         LINE#         15
  C:113AH         LINE#         16
  C:113DH         LINE#         17
  C:1140H         LINE#         18
  C:1143H         LINE#         19
  C:1146H         LINE#         20
  C:1148H         LINE#         21
  C:114AH         LINE#         22
  -------         ENDPROC       TIMER1_INIT
  -------         PROC          TIMER2_INIT
  C:1179H         LINE#         24
  C:1179H         LINE#         25
  C:1179H         LINE#         26
  C:117CH         LINE#         27
  C:117FH         LINE#         28
  C:1182H         LINE#         29
  C:1185H         LINE#         30
  -------         ENDPROC       TIMER2_INIT
  -------         ENDMOD        TIMER

BL51 BANKED LINKER/LOCATER V6.22.2.0                                                  03/11/2024  13:37:46  PAGE 14


  -------         MODULE        DEVICE
  C:0000H         SYMBOL        _ICE_DUMMY_
  D:0080H         PUBLIC        P0
  D:0090H         PUBLIC        P1
  D:00A0H         PUBLIC        P2
  D:00B0H         PUBLIC        P3
  D:00C0H         PUBLIC        P4
  D:00C8H         PUBLIC        P5
  D:00E8H         PUBLIC        P6
  D:00F8H         PUBLIC        P7
  D:00A8H         PUBLIC        IE
  D:00B8H         PUBLIC        IP
  D:00D8H         PUBLIC        CCON
  D:0098H         PUBLIC        SCON
  D:0088H         PUBLIC        TCON
  D:00AFH         PUBLIC        IE2
  C:0003H         PUBLIC        Device_Init
  C:115BH         PUBLIC        _Device_Ctrl
  B:00B8H.3       PUBLIC        PT1
  D:00D0H         PUBLIC        PSW
  -------         PROC          _DEVICE_CTRL
  D:0007H         SYMBOL        p2data
  D:0005H         SYMBOL        p0data
  C:115BH         LINE#         3
  C:115BH         LINE#         4
  C:115BH         LINE#         5
  C:1162H         LINE#         6
  C:1166H         LINE#         7
  C:1169H         LINE#         8
  -------         ENDPROC       _DEVICE_CTRL
  -------         PROC          DEVICE_INIT
  C:0003H         LINE#         10
  C:0003H         LINE#         11
  C:0003H         LINE#         12
  C:000AH         LINE#         13
  C:0011H         LINE#         15
  C:0014H         LINE#         16
  C:0016H         LINE#         17
  C:0019H         LINE#         19
  -------         ENDPROC       DEVICE_INIT
  -------         ENDMOD        DEVICE

  -------         MODULE        IIC
  C:0000H         SYMBOL        _ICE_DUMMY_
  D:0080H         PUBLIC        P0
  D:0090H         PUBLIC        P1
  D:00A0H         PUBLIC        P2
  D:00B0H         PUBLIC        P3
  D:00C0H         PUBLIC        P4
  D:00C8H         PUBLIC        P5
  D:00E8H         PUBLIC        P6
  D:00F8H         PUBLIC        P7
  D:00A8H         PUBLIC        IE
  C:118AH         SYMBOL        _I2C_Delay
  D:00B8H         PUBLIC        IP
  C:102BH         PUBLIC        I2CReceiveByte
  D:00D8H         PUBLIC        CCON
BL51 BANKED LINKER/LOCATER V6.22.2.0                                                  03/11/2024  13:37:46  PAGE 15


  D:0098H         PUBLIC        SCON
  D:0088H         PUBLIC        TCON
  B:00A0H.1       PUBLIC        sda
  B:00A0H.0       PUBLIC        scl
  C:116AH         PUBLIC        I2CStart
  C:10AEH         PUBLIC        I2CSendAck
  C:0F7DH         PUBLIC        _I2CSendByte
  C:1117H         PUBLIC        I2CWaitAck
  C:1192H         PUBLIC        I2CStop
  D:00D0H         PUBLIC        PSW
  C:1186H         SYMBOL        L?0021
  -------         PROC          L?0020
  -------         ENDPROC       L?0020
  C:1186H         SYMBOL        L?0021
  -------         PROC          _I2C_DELAY
  D:0007H         SYMBOL        n
  C:118AH         LINE#         10
  C:118AH         LINE#         11
  C:118AH         LINE#         12
  C:118BH         LINE#         13
  C:1191H         LINE#         14
  -------         ENDPROC       _I2C_DELAY
  -------         PROC          I2CSTART
  C:116AH         LINE#         17
  C:116AH         LINE#         18
  C:116AH         LINE#         19
  C:116CH         LINE#         20
  C:116CH         LINE#         21
  C:116FH         LINE#         22
  C:1171H         LINE#         23
  C:1176H         LINE#         24
  C:1178H         LINE#         25
  -------         ENDPROC       I2CSTART
  -------         PROC          I2CSTOP
  C:1192H         LINE#         28
  C:1192H         LINE#         29
  C:1192H         LINE#         30
  C:1194H         LINE#         31
  C:1194H         LINE#         32
  C:1197H         LINE#         33
  C:1199H         LINE#         34
  -------         ENDPROC       I2CSTOP
  -------         PROC          _I2CSENDBYTE
  D:0005H         SYMBOL        byt
  -------         DO            
  D:0004H         SYMBOL        i
  -------         ENDDO         
  C:0F7DH         LINE#         38
  C:0F7FH         LINE#         39
  C:0F7FH         LINE#         42
  C:0F8BH         LINE#         43
  C:0F8DH         LINE#         44
  C:0F92H         LINE#         45
  C:0F96H         LINE#         46
  C:0F98H         LINE#         47
  C:0F9AH         LINE#         48
  C:0F9AH         LINE#         49
BL51 BANKED LINKER/LOCATER V6.22.2.0                                                  03/11/2024  13:37:46  PAGE 16


  C:0F9CH         LINE#         50
  C:0F9CH         LINE#         51
  C:0FA1H         LINE#         52
  C:0FA3H         LINE#         53
  C:0FA7H         LINE#         54
  C:0FACH         LINE#         55
  C:0FAFH         LINE#         57
  C:0FB1H         LINE#         58
  -------         ENDPROC       _I2CSENDBYTE
  -------         PROC          I2CRECEIVEBYTE
  -------         DO            
  D:0005H         SYMBOL        da
  D:0004H         SYMBOL        i
  -------         ENDDO         
  C:102BH         LINE#         61
  C:102BH         LINE#         62
  C:102BH         LINE#         65
  C:1037H         LINE#         66
  C:1037H         LINE#         67
  C:103AH         LINE#         68
  C:103EH         LINE#         69
  C:1041H         LINE#         70
  C:1044H         LINE#         71
  C:1046H         LINE#         72
  C:104BH         LINE#         73
  C:104EH         LINE#         74
  C:1050H         LINE#         75
  -------         ENDPROC       I2CRECEIVEBYTE
  -------         PROC          I2CWAITACK
  -------         DO            
  D:0005H         SYMBOL        ackbit
  -------         ENDDO         
  C:1117H         LINE#         78
  C:1117H         LINE#         79
  C:1117H         LINE#         82
  C:1117H         LINE#         83
  C:111AH         LINE#         84
  C:111FH         LINE#         85
  C:1121H         LINE#         86
  C:1126H         LINE#         88
  C:1128H         LINE#         89
  -------         ENDPROC       I2CWAITACK
  -------         PROC          I2CSENDACK
  B:0021H.0       SYMBOL        ackbit
  C:10AEH         LINE#         92
  C:10AEH         LINE#         93
  C:10AEH         LINE#         94
  C:10B0H         LINE#         95
  C:10B4H         LINE#         96
  C:10B9H         LINE#         97
  C:10B9H         LINE#         98
  C:10BCH         LINE#         99
  C:10BEH         LINE#         100
  C:10C0H         LINE#         101
  -------         ENDPROC       I2CSENDACK
  -------         ENDMOD        IIC

BL51 BANKED LINKER/LOCATER V6.22.2.0                                                  03/11/2024  13:37:46  PAGE 17


  -------         MODULE        ONEWIRE
  C:0000H         SYMBOL        _ICE_DUMMY_
  D:0080H         PUBLIC        P0
  D:0090H         PUBLIC        P1
  D:00A0H         PUBLIC        P2
  D:00B0H         PUBLIC        P3
  D:00C0H         PUBLIC        P4
  C:1051H         PUBLIC        Read_DS18B20
  D:00C8H         PUBLIC        P5
  D:00E8H         PUBLIC        P6
  D:00F8H         PUBLIC        P7
  D:00A8H         PUBLIC        IE
  C:1078H         PUBLIC        _Delay_OneWire
  C:0FDDH         PUBLIC        _Write_DS18B20
  B:0090H.4       PUBLIC        DQ
  D:00B8H         PUBLIC        IP
  C:1004H         PUBLIC        init_ds18b20
  D:00D8H         PUBLIC        CCON
  D:0098H         PUBLIC        SCON
  D:0088H         PUBLIC        TCON
  D:00D0H         PUBLIC        PSW
  C:1074H         SYMBOL        L?0019
  -------         PROC          L?0018
  -------         ENDPROC       L?0018
  C:1074H         SYMBOL        L?0019
  -------         PROC          _DELAY_ONEWIRE
  D:0006H         SYMBOL        t
  -------         DO            
  D:0005H         SYMBOL        i
  -------         ENDDO         
  C:1078H         LINE#         8
  C:1078H         LINE#         9
  C:1078H         LINE#         11
  C:1082H         LINE#         12
  C:1091H         LINE#         13
  C:1091H         LINE#         14
  -------         ENDPROC       _DELAY_ONEWIRE
  -------         PROC          _WRITE_DS18B20
  D:0001H         SYMBOL        dat
  -------         DO            
  D:0003H         SYMBOL        i
  -------         ENDDO         
  C:0FDDH         LINE#         17
  C:0FDFH         LINE#         18
  C:0FDFH         LINE#         20
  C:0FEBH         LINE#         21
  C:0FEBH         LINE#         22
  C:0FEDH         LINE#         23
  C:0FF1H         LINE#         24
  C:0FF4H         LINE#         25
  C:0FF6H         LINE#         26
  C:0FFAH         LINE#         27
  C:0FFDH         LINE#         28
  -------         ENDPROC       _WRITE_DS18B20
  -------         PROC          READ_DS18B20
  -------         DO            
  D:0003H         SYMBOL        i
BL51 BANKED LINKER/LOCATER V6.22.2.0                                                  03/11/2024  13:37:46  PAGE 18


  D:0004H         SYMBOL        dat
  -------         ENDDO         
  C:1051H         LINE#         32
  C:1051H         LINE#         33
  C:1051H         LINE#         37
  C:105DH         LINE#         38
  C:105DH         LINE#         39
  C:105FH         LINE#         40
  C:1063H         LINE#         41
  C:1065H         LINE#         42
  C:1068H         LINE#         43
  C:1068H         LINE#         44
  C:106BH         LINE#         45
  C:106BH         LINE#         46
  C:106EH         LINE#         47
  C:1071H         LINE#         48
  C:1073H         LINE#         49
  -------         ENDPROC       READ_DS18B20
  -------         PROC          INIT_DS18B20
  -------         DO            
  B:0021H.0       SYMBOL        initflag
  -------         ENDDO         
  C:1004H         LINE#         52
  C:1004H         LINE#         53
  C:1004H         LINE#         54
  C:1006H         LINE#         56
  C:1008H         LINE#         57
  C:100FH         LINE#         58
  C:1011H         LINE#         59
  C:1018H         LINE#         60
  C:101AH         LINE#         61
  C:1021H         LINE#         62
  C:1025H         LINE#         63
  C:1028H         LINE#         65
  C:102AH         LINE#         66
  -------         ENDPROC       INIT_DS18B20
  -------         ENDMOD        ONEWIRE

  -------         MODULE        SEG
  C:0000H         SYMBOL        _ICE_DUMMY_
  D:0080H         PUBLIC        P0
  D:0090H         PUBLIC        P1
  D:00A0H         PUBLIC        P2
  D:00B0H         PUBLIC        P3
  D:00C0H         PUBLIC        P4
  D:00C8H         PUBLIC        P5
  D:00E8H         PUBLIC        P6
  D:00F8H         PUBLIC        P7
  D:00A8H         PUBLIC        IE
  D:00B8H         PUBLIC        IP
  C:0F44H         PUBLIC        SEG_Display
  D:00D8H         PUBLIC        CCON
  D:0098H         PUBLIC        SCON
  D:0088H         PUBLIC        TCON
  C:114BH         PUBLIC        tab
  X:00F3H         PUBLIC        seg_buf
  D:00D0H         PUBLIC        PSW
BL51 BANKED LINKER/LOCATER V6.22.2.0                                                  03/11/2024  13:37:46  PAGE 19


  -------         PROC          SEG_DISPLAY
  -------         DO            
  X:00F2H         SYMBOL        i
  -------         ENDDO         
  C:0F44H         LINE#         24
  C:0F44H         LINE#         25
  C:0F44H         LINE#         27
  C:0F4BH         LINE#         28
  C:0F5FH         LINE#         29
  C:0F74H         LINE#         30
  C:0F7CH         LINE#         31
  -------         ENDPROC       SEG_DISPLAY
  -------         ENDMOD        SEG

  -------         MODULE        KBD
  C:0000H         SYMBOL        _ICE_DUMMY_
  D:0080H         PUBLIC        P0
  D:0090H         PUBLIC        P1
  D:00A0H         PUBLIC        P2
  D:00B0H         PUBLIC        P3
  D:00C0H         PUBLIC        P4
  D:00C8H         PUBLIC        P5
  D:00E8H         PUBLIC        P6
  D:00F8H         PUBLIC        P7
  D:00A8H         PUBLIC        IE
  D:00B8H         PUBLIC        IP
  D:00D8H         PUBLIC        CCON
  C:10C5H         PUBLIC        KBD_Read
  D:0098H         PUBLIC        SCON
  B:00B0H.2       PUBLIC        P32
  D:0088H         PUBLIC        TCON
  X:00FBH         PUBLIC        cont
  B:00C0H.2       PUBLIC        P42
  B:00B0H.3       PUBLIC        P33
  B:00C0H.4       PUBLIC        P44
  C:0FB2H         PUBLIC        KBD_IO
  X:00FCH         PUBLIC        trg
  D:00D0H         PUBLIC        PSW
  -------         PROC          KBD_IO
  -------         DO            
  D:0007H         SYMBOL        io
  -------         ENDDO         
  C:0FB2H         LINE#         3
  C:0FB2H         LINE#         4
  C:0FB2H         LINE#         5
  C:0FB4H         LINE#         19
  C:0FBCH         LINE#         20
  C:0FC1H         LINE#         21
  C:0FC6H         LINE#         23
  C:0FCEH         LINE#         24
  C:0FD5H         LINE#         25
  C:0FDCH         LINE#         27
  C:0FDCH         LINE#         28
  -------         ENDPROC       KBD_IO
  -------         PROC          KBD_READ
  -------         DO            
  D:0005H         SYMBOL        state
BL51 BANKED LINKER/LOCATER V6.22.2.0                                                  03/11/2024  13:37:46  PAGE 20


  -------         ENDDO         
  C:10C5H         LINE#         31
  C:10C5H         LINE#         32
  C:10C5H         LINE#         33
  C:10CBH         LINE#         34
  C:10D3H         LINE#         35
  C:10DAH         LINE#         36
  -------         ENDPROC       KBD_READ
  -------         ENDMOD        KBD

  -------         MODULE        DS1302
  C:0000H         SYMBOL        _ICE_DUMMY_
  D:0080H         PUBLIC        P0
  D:0090H         PUBLIC        P1
  D:00A0H         PUBLIC        P2
  D:00B0H         PUBLIC        P3
  D:00C0H         PUBLIC        P4
  D:00C8H         PUBLIC        P5
  D:00E8H         PUBLIC        P6
  D:00F8H         PUBLIC        P7
  D:00A8H         PUBLIC        IE
  D:00B8H         PUBLIC        IP
  D:00D8H         PUBLIC        CCON
  D:0098H         PUBLIC        SCON
  D:0088H         PUBLIC        TCON
  C:0F09H         PUBLIC        _DS1302_Read
  C:0E54H         PUBLIC        _Read_Ds1302_Byte
  B:00A0H.3       PUBLIC        SDA
  B:0090H.7       PUBLIC        SCK
  C:10F0H         PUBLIC        _Write_Ds1302_Byte
  C:0DC9H         PUBLIC        _DS1302_Set
  C:1092H         PUBLIC        _Write_Ds1302
  B:0090H.3       PUBLIC        RST
  D:00D0H         PUBLIC        PSW
  -------         PROC          _WRITE_DS1302
  D:0007H         SYMBOL        temp
  -------         DO            
  D:0006H         SYMBOL        i
  -------         ENDDO         
  C:1092H         LINE#         3
  C:1092H         LINE#         4
  C:1092H         LINE#         6
  C:109EH         LINE#         7
  C:109EH         LINE#         8
  C:10A0H         LINE#         9
  C:10A4H         LINE#         10
  C:10A8H         LINE#         11
  C:10AAH         LINE#         12
  C:10ADH         LINE#         13
  -------         ENDPROC       _WRITE_DS1302
  -------         PROC          _WRITE_DS1302_BYTE
  D:0007H         SYMBOL        address
  D:0005H         SYMBOL        dat
  C:10F0H         LINE#         15
  C:10F0H         LINE#         16
  C:10F0H         LINE#         17
  C:10F3H         LINE#         18
BL51 BANKED LINKER/LOCATER V6.22.2.0                                                  03/11/2024  13:37:46  PAGE 21


  C:10F6H         LINE#         19
  C:10F9H         LINE#         20
  C:10FCH         LINE#         21
  C:1101H         LINE#         22
  C:1103H         LINE#         23
  -------         ENDPROC       _WRITE_DS1302_BYTE
  -------         PROC          _READ_DS1302_BYTE
  D:0007H         SYMBOL        address
  -------         DO            
  D:0007H         SYMBOL        i
  D:0005H         SYMBOL        temp
  -------         ENDDO         
  C:0E54H         LINE#         25
  C:0E54H         LINE#         26
  C:0E54H         LINE#         27
  C:0E56H         LINE#         28
  C:0E59H         LINE#         29
  C:0E5CH         LINE#         30
  C:0E5FH         LINE#         31
  C:0E62H         LINE#         32
  C:0E6EH         LINE#         33
  C:0E6EH         LINE#         34
  C:0E70H         LINE#         35
  C:0E74H         LINE#         36
  C:0E77H         LINE#         37
  C:0E7AH         LINE#         38
  C:0E7CH         LINE#         39
  C:0E7FH         LINE#         40
  C:0E82H         LINE#         41
  C:0E85H         LINE#         42
  C:0E88H         LINE#         43
  C:0E8BH         LINE#         44
  C:0E8EH         LINE#         45
  C:0E90H         LINE#         46
  -------         ENDPROC       _READ_DS1302_BYTE
  -------         PROC          _DS1302_SET
  X:00E6H         SYMBOL        time
  -------         DO            
  D:0004H         SYMBOL        i
  -------         ENDDO         
  C:0DC9H         LINE#         49
  C:0DD4H         LINE#         50
  C:0DD4H         LINE#         52
  C:0DDBH         LINE#         54
  C:0DE7H         LINE#         55
  C:0E07H         LINE#         56
  C:0E0AH         LINE#         58
  -------         ENDPROC       _DS1302_SET
  -------         PROC          _DS1302_READ
  X:00E6H         SYMBOL        time
  -------         DO            
  D:0004H         SYMBOL        i
  -------         ENDDO         
  C:0F09H         LINE#         61
  C:0F14H         LINE#         62
  C:0F14H         LINE#         64
  C:0F20H         LINE#         65
BL51 BANKED LINKER/LOCATER V6.22.2.0                                                  03/11/2024  13:37:46  PAGE 22


  C:0F40H         LINE#         66
  C:0F43H         LINE#         67
  -------         ENDPROC       _DS1302_READ
  -------         ENDMOD        DS1302

  -------         MODULE        ADDA
  C:0000H         SYMBOL        _ICE_DUMMY_
  D:0080H         PUBLIC        P0
  D:0090H         PUBLIC        P1
  D:00A0H         PUBLIC        P2
  D:00B0H         PUBLIC        P3
  D:00C0H         PUBLIC        P4
  D:00C8H         PUBLIC        P5
  D:00E8H         PUBLIC        P6
  D:00F8H         PUBLIC        P7
  D:00A8H         PUBLIC        IE
  D:00B8H         PUBLIC        IP
  D:00D8H         PUBLIC        CCON
  D:0098H         PUBLIC        SCON
  D:0088H         PUBLIC        TCON
  C:0E91H         PUBLIC        _AD_Read
  D:00D0H         PUBLIC        PSW
  -------         PROC          _AD_READ
  X:00E6H         SYMBOL        addr
  -------         DO            
  X:00E7H         SYMBOL        dat
  -------         ENDDO         
  C:0E91H         LINE#         5
  C:0E96H         LINE#         6
  C:0E96H         LINE#         8
  C:0E99H         LINE#         9
  C:0E9EH         LINE#         10
  C:0EA1H         LINE#         11
  C:0EA9H         LINE#         12
  C:0EACH         LINE#         14
  C:0EAFH         LINE#         15
  C:0EB4H         LINE#         16
  C:0EB7H         LINE#         17
  C:0EBFH         LINE#         18
  C:0EC4H         LINE#         19
  C:0EC7H         LINE#         21
  C:0ECCH         LINE#         22
  -------         ENDPROC       _AD_READ
  -------         ENDMOD        ADDA

  -------         MODULE        DS18B20
  C:0000H         SYMBOL        _ICE_DUMMY_
  D:0080H         PUBLIC        P0
  D:0090H         PUBLIC        P1
  D:00A0H         PUBLIC        P2
  D:00B0H         PUBLIC        P3
  D:00C0H         PUBLIC        P4
  D:00C8H         PUBLIC        P5
  D:00E8H         PUBLIC        P6
  D:00F8H         PUBLIC        P7
  D:00A8H         PUBLIC        IE
  D:00B8H         PUBLIC        IP
BL51 BANKED LINKER/LOCATER V6.22.2.0                                                  03/11/2024  13:37:46  PAGE 23


  D:00D8H         PUBLIC        CCON
  D:0098H         PUBLIC        SCON
  D:0088H         PUBLIC        TCON
  C:0ECDH         PUBLIC        Read_Temper
  D:00D0H         PUBLIC        PSW
  -------         PROC          READ_TEMPER
  -------         DO            
  X:00E6H         SYMBOL        low
  D:0007H         SYMBOL        high
  -------         ENDDO         
  C:0ECDH         LINE#         3
  C:0ECDH         LINE#         4
  C:0ECDH         LINE#         7
  C:0ED0H         LINE#         8
  C:0ED5H         LINE#         9
  C:0EDAH         LINE#         11
  C:0EDDH         LINE#         12
  C:0EE2H         LINE#         13
  C:0EE7H         LINE#         15
  C:0EEFH         LINE#         16
  C:0EF2H         LINE#         18
  -------         ENDPROC       READ_TEMPER
  -------         ENDMOD        DS18B20

  -------         MODULE        ?C?FPADD
  C:006DH         PUBLIC        ?C?FPADD
  C:0069H         PUBLIC        ?C?FPSUB
  -------         ENDMOD        ?C?FPADD

  -------         MODULE        ?C?FPMUL
  C:015EH         PUBLIC        ?C?FPMUL
  -------         ENDMOD        ?C?FPMUL

  -------         MODULE        ?C?FPDIV
  C:0267H         PUBLIC        ?C?FPDIV
  -------         ENDMOD        ?C?FPDIV

  -------         MODULE        ?C?FCAST
  C:030EH         PUBLIC        ?C?FCASTC
  C:0309H         PUBLIC        ?C?FCASTI
  C:0304H         PUBLIC        ?C?FCASTL
  -------         ENDMOD        ?C?FCAST

  -------         MODULE        ?C?CASTF
  C:0342H         PUBLIC        ?C?CASTF
  -------         ENDMOD        ?C?CASTF

  -------         MODULE        ?C?CLDOPTR
  C:03C3H         PUBLIC        ?C?CLDOPTR
  -------         ENDMOD        ?C?CLDOPTR

  -------         MODULE        ?C?CSTOPTR
  C:03F0H         PUBLIC        ?C?CSTOPTR
  -------         ENDMOD        ?C?CSTOPTR

  -------         MODULE        ?C?LNEG
  C:0412H         PUBLIC        ?C?LNEG
BL51 BANKED LINKER/LOCATER V6.22.2.0                                                  03/11/2024  13:37:46  PAGE 24


  -------         ENDMOD        ?C?LNEG

  -------         MODULE        ?C?LSTXDATA
  C:0420H         PUBLIC        ?C?LSTXDATA
  -------         ENDMOD        ?C?LSTXDATA

  -------         MODULE        ?C?LSTKXDATA
  C:042CH         PUBLIC        ?C?LSTKXDATA
  -------         ENDMOD        ?C?LSTKXDATA

Program Size: data=13.1 xdata=253 code=4508
LINK/LOCATE RUN COMPLETE.  0 WARNING(S),  0 ERROR(S)
