BL51 BANKED LINKER/LOCATER V6.22                                                        03/03/2024  20:22:33  PAGE 1


BL51 BANKED LINKER/LOCATER V6.22, INVOKED BY:
D:\C51\BIN\BL51.EXE .\Objects\STARTUP.obj, .\Objects\main.obj, .\Objects\Timer.obj, .\Objects\Device.obj, .\Objects\onew
>> ire.obj, .\Objects\KBD.obj, .\Objects\SEG.obj, .\Objects\DS1302.obj, .\Objects\DS18B20.obj TO .\Objects\LQ-Ys PRINT (
>> .\Listings\LQ-Ys.m51) RAMSIZE (256)


MEMORY MODEL: SMALL WITH FLOATING POINT ARITHMETIC


INPUT MODULES INCLUDED:
  .\Objects\STARTUP.obj (?C_STARTUP)
  .\Objects\main.obj (MAIN)
  .\Objects\Timer.obj (TIMER)
  .\Objects\Device.obj (DEVICE)
  .\Objects\onewire.obj (ONEWIRE)
  .\Objects\KBD.obj (KBD)
  .\Objects\SEG.obj (SEG)
  .\Objects\DS1302.obj (DS1302)
  .\Objects\DS18B20.obj (DS18B20)
  D:\C51\LIB\C51FPS.LIB (?C?FPMUL)
  D:\C51\LIB\C51FPS.LIB (?C?FPDIV)
  D:\C51\LIB\C51FPS.LIB (?C?FPCMP)
  D:\C51\LIB\C51FPS.LIB (?C?FCAST)
  D:\C51\LIB\C51FPS.LIB (?C?CASTF)
  D:\C51\LIB\C51FPS.LIB (?C?FPGETOPN)
  D:\C51\LIB\C51S.LIB (?C_INIT)
  D:\C51\LIB\C51S.LIB (?C?CLDOPTR)
  D:\C51\LIB\C51S.LIB (?C?CSTOPTR)
  D:\C51\LIB\C51S.LIB (?C?LNEG)


LINK MAP OF MODULE:  .\Objects\LQ-Ys (?C_STARTUP)


            TYPE    BASE      LENGTH    RELOCATION   SEGMENT NAME
            -----------------------------------------------------

            * * * * * * *   D A T A   M E M O R Y   * * * * * * *
            REG     0000H     0008H     ABSOLUTE     "REG BANK 0"
            DATA    0008H     000FH     UNIT         ?DT?MAIN
            DATA    0017H     0009H     UNIT         ?DT?SEG
            BIT     0020H.0   0000H.6   UNIT         ?BI?MAIN
            BIT     0020H.6   0000H.1   UNIT         _BIT_GROUP_
                    0020H.7   0000H.1                *** GAP ***
            DATA    0021H     0003H     UNIT         _DATA_GROUP_
            DATA    0024H     0002H     UNIT         ?DT?KBD
            IDATA   0026H     0001H     UNIT         ?STACK

            * * * * * * *   C O D E   M E M O R Y   * * * * * * *
            CODE    0000H     0003H     ABSOLUTE     
            CODE    0003H     0054H     UNIT         ?PR?KBD_PROCESS?MAIN
                    0057H     000CH                  *** GAP ***
            CODE    0063H     0003H     ABSOLUTE     
            CODE    0066H     033BH     UNIT         ?C?LIB_CODE
            CODE    03A1H     00FEH     UNIT         ?PR?SEG_PROCESS?MAIN
            CODE    049FH     0099H     UNIT         ?PR?MINFO_PROCESS?MAIN
            CODE    0538H     008EH     UNIT         ?PR?I2ISR?MAIN
            CODE    05C6H     008CH     UNIT         ?C_C51STARTUP
BL51 BANKED LINKER/LOCATER V6.22                                                      03/03/2024  20:22:33  PAGE 2


            CODE    0652H     004FH     UNIT         ?PR?KBD_IO?KBD
            CODE    06A1H     0035H     UNIT         ?PR?_DS1302_SET?DS1302
            CODE    06D6H     0035H     UNIT         ?PR?READ_TEMPER?DS18B20
            CODE    070BH     0034H     UNIT         ?PR?_READ_DS1302_BYTE?DS1302
            CODE    073FH     002EH     UNIT         ?PR?SEG_DISPLAY?SEG
            CODE    076DH     002BH     UNIT         ?PR?RELAY_PROCESS?MAIN
            CODE    0798H     0028H     UNIT         ?PR?_DS1302_READ?DS1302
            CODE    07C0H     0027H     UNIT         ?PR?INIT_DS18B20?ONEWIRE
            CODE    07E7H     0026H     UNIT         ?PR?LED_PROCESS?MAIN
            CODE    080DH     0026H     UNIT         ?PR?MAIN?MAIN
            CODE    0833H     001EH     UNIT         ?PR?_WRITE_DS18B20?ONEWIRE
            CODE    0851H     001DH     UNIT         ?C_INITSEG
            CODE    086EH     001AH     UNIT         ?PR?_DELAY_ONEWIRE?ONEWIRE
            CODE    0888H     001AH     UNIT         ?PR?READ_DS18B20?ONEWIRE
            CODE    08A2H     0014H     UNIT         ?PR?DEVICE_INIT?DEVICE
            CODE    08B6H     0014H     UNIT         ?PR?_WRITE_DS1302_BYTE?DS1302
            CODE    08CAH     0013H     UNIT         ?PR?_WRITE_DS1302?DS1302
            CODE    08DDH     0010H     UNIT         ?CO?SEG
            CODE    08EDH     000FH     UNIT         ?PR?DELAY750MS?MAIN
            CODE    08FCH     000EH     UNIT         ?PR?KBD_READ?KBD
            CODE    090AH     000DH     UNIT         ?PR?TIMER2_INIT?TIMER
            CODE    0917H     000DH     UNIT         ?PR?_DEVICE_CTRL?DEVICE



OVERLAY MAP OF MODULE:   .\Objects\LQ-Ys (?C_STARTUP)


SEGMENT                                  BIT_GROUP          DATA_GROUP 
  +--> CALLED SEGMENT                 START    LENGTH     START    LENGTH
-------------------------------------------------------------------------
?C_C51STARTUP                         -----    -----      -----    -----
  +--> ?PR?MAIN?MAIN
  +--> ?C_INITSEG

?PR?MAIN?MAIN                         -----    -----      -----    -----
  +--> ?PR?READ_TEMPER?DS18B20
  +--> ?PR?DELAY750MS?MAIN
  +--> ?PR?TIMER2_INIT?TIMER
  +--> ?PR?DEVICE_INIT?DEVICE
  +--> ?PR?_DS1302_SET?DS1302
  +--> ?PR?MINFO_PROCESS?MAIN
  +--> ?PR?KBD_PROCESS?MAIN
  +--> ?PR?SEG_PROCESS?MAIN
  +--> ?PR?LED_PROCESS?MAIN
  +--> ?PR?RELAY_PROCESS?MAIN

?PR?READ_TEMPER?DS18B20               -----    -----      0021H    0001H
  +--> ?PR?INIT_DS18B20?ONEWIRE
  +--> ?PR?_WRITE_DS18B20?ONEWIRE
  +--> ?PR?READ_DS18B20?ONEWIRE

?PR?INIT_DS18B20?ONEWIRE              0020H.6  0000H.1    -----    -----
  +--> ?PR?_DELAY_ONEWIRE?ONEWIRE

?PR?_WRITE_DS18B20?ONEWIRE            -----    -----      -----    -----
  +--> ?PR?_DELAY_ONEWIRE?ONEWIRE
BL51 BANKED LINKER/LOCATER V6.22                                                      03/03/2024  20:22:33  PAGE 3



?PR?READ_DS18B20?ONEWIRE              -----    -----      -----    -----
  +--> ?PR?_DELAY_ONEWIRE?ONEWIRE

?PR?DEVICE_INIT?DEVICE                -----    -----      -----    -----
  +--> ?PR?_DEVICE_CTRL?DEVICE

?PR?_DS1302_SET?DS1302                -----    -----      0021H    0003H
  +--> ?PR?_WRITE_DS1302_BYTE?DS1302

?PR?_WRITE_DS1302_BYTE?DS1302         -----    -----      -----    -----
  +--> ?PR?_WRITE_DS1302?DS1302

?PR?MINFO_PROCESS?MAIN                -----    -----      -----    -----
  +--> ?PR?_DS1302_READ?DS1302
  +--> ?PR?READ_TEMPER?DS18B20

?PR?_DS1302_READ?DS1302               -----    -----      0021H    0003H
  +--> ?PR?_READ_DS1302_BYTE?DS1302

?PR?_READ_DS1302_BYTE?DS1302          -----    -----      -----    -----
  +--> ?PR?_WRITE_DS1302?DS1302

?PR?KBD_PROCESS?MAIN                  -----    -----      -----    -----
  +--> ?PR?KBD_READ?KBD

?PR?KBD_READ?KBD                      -----    -----      -----    -----
  +--> ?PR?KBD_IO?KBD

?PR?SEG_PROCESS?MAIN                  -----    -----      -----    -----
  +--> ?CO?SEG

?PR?LED_PROCESS?MAIN                  -----    -----      -----    -----
  +--> ?PR?_DEVICE_CTRL?DEVICE

?PR?RELAY_PROCESS?MAIN                -----    -----      -----    -----
  +--> ?PR?_DEVICE_CTRL?DEVICE

*** NEW ROOT ***************************************************

?PR?I2ISR?MAIN                        -----    -----      -----    -----
  +--> ?PR?SEG_DISPLAY?SEG

?PR?SEG_DISPLAY?SEG                   -----    -----      -----    -----
  +--> ?PR?_DEVICE_CTRL?DEVICE



SYMBOL TABLE OF MODULE:  .\Objects\LQ-Ys (?C_STARTUP)

  VALUE           TYPE          NAME
  ----------------------------------

  -------         MODULE        ?C_STARTUP
  C:05C6H         SEGMENT       ?C_C51STARTUP
  I:0026H         SEGMENT       ?STACK
  C:0000H         PUBLIC        ?C_STARTUP
BL51 BANKED LINKER/LOCATER V6.22                                                      03/03/2024  20:22:33  PAGE 4


  D:00E0H         SYMBOL        ACC
  D:00F0H         SYMBOL        B
  D:0083H         SYMBOL        DPH
  D:0082H         SYMBOL        DPL
  N:0000H         SYMBOL        IBPSTACK
  N:0100H         SYMBOL        IBPSTACKTOP
  N:0080H         SYMBOL        IDATALEN
  C:05C9H         SYMBOL        IDATALOOP
  N:0000H         SYMBOL        PBPSTACK
  N:0100H         SYMBOL        PBPSTACKTOP
  N:0000H         SYMBOL        PDATALEN
  N:0000H         SYMBOL        PDATASTART
  N:0000H         SYMBOL        PPAGE
  N:0000H         SYMBOL        PPAGEENABLE
  D:00A0H         SYMBOL        PPAGE_SFR
  D:0081H         SYMBOL        SP
  C:05C6H         SYMBOL        STARTUP1
  N:0000H         SYMBOL        XBPSTACK
  N:0000H         SYMBOL        XBPSTACKTOP
  N:0000H         SYMBOL        XDATALEN
  N:0000H         SYMBOL        XDATASTART
  C:0000H         LINE#         126
  C:05C6H         LINE#         133
  C:05C8H         LINE#         134
  C:05C9H         LINE#         135
  C:05CAH         LINE#         136
  C:05CCH         LINE#         185
  C:05CFH         LINE#         196
  -------         ENDMOD        ?C_STARTUP

  -------         MODULE        MAIN
  C:0000H         SYMBOL        _ICE_DUMMY_
  D:0080H         PUBLIC        P0
  D:0090H         PUBLIC        P1
  D:00A0H         PUBLIC        P2
  D:00B0H         PUBLIC        P3
  D:00C0H         PUBLIC        P4
  D:00C8H         PUBLIC        P5
  D:00E8H         PUBLIC        P6
  D:0009H         PUBLIC        tempset
  D:00F8H         PUBLIC        P7
  D:000AH         PUBLIC        segcnt
  D:00A8H         PUBLIC        IE
  B:0020H.0       PUBLIC        rflag
  D:000BH         PUBLIC        temper
  B:0020H.1       PUBLIC        flash
  C:0003H         PUBLIC        KBD_Process
  D:00B8H         PUBLIC        IP
  C:07E7H         PUBLIC        LED_Process
  B:0020H.2       PUBLIC        relay
  B:0020H.3       PUBLIC        sharp
  C:03A1H         PUBLIC        SEG_Process
  D:00D8H         PUBLIC        CCON
  C:080DH         PUBLIC        main
  D:000FH         PUBLIC        mode
  D:0010H         PUBLIC        icnt
  D:0098H         PUBLIC        SCON
BL51 BANKED LINKER/LOCATER V6.22                                                      03/03/2024  20:22:33  PAGE 5


  D:0088H         PUBLIC        TCON
  D:0011H         PUBLIC        rcnt
  C:049FH         PUBLIC        mInfo_Process
  C:076DH         PUBLIC        Relay_Process
  D:0012H         PUBLIC        rtc
  B:0020H.4       PUBLIC        timemode
  B:0020H.5       PUBLIC        ctrlmode
  C:0538H         PUBLIC        I2ISR
  C:08EDH         PUBLIC        Delay750ms
  D:0015H         PUBLIC        kbdcnt
  D:00D0H         PUBLIC        PSW
  D:0016H         PUBLIC        ledcnt
  -------         PROC          MINFO_PROCESS
  C:049FH         LINE#         20
  C:049FH         LINE#         21
  C:049FH         LINE#         22
  C:04A6H         LINE#         23
  C:04A9H         LINE#         25
  C:04B2H         LINE#         26
  C:04BDH         LINE#         28
  C:04CDH         LINE#         29
  C:04D1H         LINE#         30
  C:04DBH         LINE#         31
  C:04DDH         LINE#         33
  C:04E0H         LINE#         34
  C:04F0H         LINE#         35
  C:04F3H         LINE#         36
  C:04FDH         LINE#         37
  C:04FFH         LINE#         38
  C:0500H         LINE#         39
  C:0500H         LINE#         40
  C:051AH         LINE#         41
  C:051DH         LINE#         42
  C:0535H         LINE#         43
  C:0537H         LINE#         44
  C:0537H         LINE#         45
  -------         ENDPROC       MINFO_PROCESS
  -------         PROC          KBD_PROCESS
  C:0003H         LINE#         48
  C:0003H         LINE#         49
  C:0003H         LINE#         50
  C:0007H         LINE#         51
  C:000AH         LINE#         53
  C:000DH         LINE#         55
  C:0012H         LINE#         56
  C:001BH         LINE#         57
  C:001EH         LINE#         59
  C:001EH         LINE#         61
  C:0023H         LINE#         62
  C:0025H         LINE#         64
  C:002AH         LINE#         65
  C:002FH         LINE#         66
  C:0033H         LINE#         68
  C:0035H         LINE#         69
  C:0035H         LINE#         71
  C:003AH         LINE#         72
  C:003FH         LINE#         73
BL51 BANKED LINKER/LOCATER V6.22                                                      03/03/2024  20:22:33  PAGE 6


  C:0048H         LINE#         74
  C:004DH         LINE#         75
  C:0056H         LINE#         76
  C:0056H         LINE#         78
  -------         ENDPROC       KBD_PROCESS
  -------         PROC          SEG_PROCESS
  C:03A1H         LINE#         80
  C:03A1H         LINE#         81
  C:03A1H         LINE#         82
  C:03A8H         LINE#         83
  C:03ABH         LINE#         85
  C:03AEH         LINE#         86
  C:03B6H         LINE#         87
  C:03C9H         LINE#         88
  C:03C9H         LINE#         89
  C:03CCH         LINE#         90
  C:03CFH         LINE#         91
  C:03D2H         LINE#         92
  C:03F4H         LINE#         93
  C:040EH         LINE#         94
  C:042DH         LINE#         95
  C:042FH         LINE#         96
  C:042FH         LINE#         97
  C:0432H         LINE#         98
  C:0437H         LINE#         99
  C:0442H         LINE#         100
  C:0449H         LINE#         101
  C:044CH         LINE#         102
  C:0454H         LINE#         103
  C:0456H         LINE#         104
  C:0458H         LINE#         105
  C:0458H         LINE#         106
  C:0463H         LINE#         107
  C:046AH         LINE#         108
  C:046DH         LINE#         109
  C:0475H         LINE#         110
  C:0479H         LINE#         111
  C:0479H         LINE#         112
  C:047BH         LINE#         113
  C:047BH         LINE#         114
  C:047EH         LINE#         115
  C:0481H         LINE#         116
  C:0484H         LINE#         117
  C:0487H         LINE#         118
  C:0493H         LINE#         119
  C:049EH         LINE#         120
  C:049EH         LINE#         121
  C:049EH         LINE#         122
  -------         ENDPROC       SEG_PROCESS
  -------         PROC          LED_PROCESS
  -------         DO            
  D:0005H         SYMBOL        led
  -------         ENDDO         
  C:07E7H         LINE#         124
  C:07E7H         LINE#         125
  C:07E7H         LINE#         126
  C:07E9H         LINE#         128
BL51 BANKED LINKER/LOCATER V6.22                                                      03/03/2024  20:22:33  PAGE 7


  C:07EDH         LINE#         129
  C:07F0H         LINE#         131
  C:07F6H         LINE#         132
  C:07FEH         LINE#         133
  C:0804H         LINE#         134
  C:0807H         LINE#         136
  C:080CH         LINE#         137
  -------         ENDPROC       LED_PROCESS
  -------         PROC          RELAY_PROCESS
  C:076DH         LINE#         139
  C:076DH         LINE#         140
  C:076DH         LINE#         141
  C:0771H         LINE#         142
  C:0774H         LINE#         144
  C:077AH         LINE#         145
  C:0781H         LINE#         146
  C:0783H         LINE#         147
  C:0784H         LINE#         148
  C:078EH         LINE#         149
  C:0795H         LINE#         150
  C:0797H         LINE#         151
  C:0797H         LINE#         152
  -------         ENDPROC       RELAY_PROCESS
  -------         PROC          DELAY750MS
  -------         DO            
  D:0007H         SYMBOL        i
  D:0006H         SYMBOL        j
  D:0005H         SYMBOL        k
  -------         ENDDO         
  C:08EDH         LINE#         155
  C:08EDH         LINE#         156
  C:08EDH         LINE#         159
  C:08EEH         LINE#         160
  C:08EFH         LINE#         161
  C:08F1H         LINE#         162
  C:08F3H         LINE#         163
  C:08F5H         LINE#         165
  C:08F5H         LINE#         167
  C:08F5H         LINE#         168
  C:08F7H         LINE#         169
  C:08F9H         LINE#         170
  C:08FBH         LINE#         171
  -------         ENDPROC       DELAY750MS
  -------         PROC          MAIN
  C:080DH         LINE#         172
  C:080DH         LINE#         173
  C:080DH         LINE#         174
  C:0810H         LINE#         175
  C:0813H         LINE#         177
  C:0816H         LINE#         178
  C:0819H         LINE#         179
  C:0822H         LINE#         180
  C:0822H         LINE#         181
  C:0822H         LINE#         182
  C:0825H         LINE#         184
  C:0828H         LINE#         185
  C:082BH         LINE#         186
BL51 BANKED LINKER/LOCATER V6.22                                                      03/03/2024  20:22:33  PAGE 8


  C:082EH         LINE#         187
  C:0831H         LINE#         188
  -------         ENDPROC       MAIN
  -------         PROC          I2ISR
  -------         DO            
  D:0008H         SYMBOL        cnt
  -------         ENDDO         
  C:0538H         LINE#         191
  C:0555H         LINE#         194
  C:0558H         LINE#         196
  C:0564H         LINE#         197
  C:0570H         LINE#         198
  C:057CH         LINE#         199
  C:0588H         LINE#         200
  C:0594H         LINE#         202
  C:0597H         LINE#         203
  C:05A0H         LINE#         204
  C:05A2H         LINE#         205
  C:05A2H         LINE#         206
  C:05A2H         LINE#         207
  C:05A4H         LINE#         208
  C:05A8H         LINE#         209
  C:05ABH         LINE#         210
  -------         ENDPROC       I2ISR
  -------         ENDMOD        MAIN

  -------         MODULE        TIMER
  C:0000H         SYMBOL        _ICE_DUMMY_
  D:0080H         PUBLIC        P0
  D:0090H         PUBLIC        P1
  D:00A0H         PUBLIC        P2
  D:00B0H         PUBLIC        P3
  D:00C0H         PUBLIC        P4
  D:00C8H         PUBLIC        P5
  D:00E8H         PUBLIC        P6
  D:00F8H         PUBLIC        P7
  D:00A8H         PUBLIC        IE
  D:00B8H         PUBLIC        IP
  D:00D8H         PUBLIC        CCON
  C:090AH         PUBLIC        Timer2_Init
  D:0098H         PUBLIC        SCON
  D:0088H         PUBLIC        TCON
  D:008EH         PUBLIC        AUXR
  D:00D6H         PUBLIC        T2H
  D:00D7H         PUBLIC        T2L
  D:00D0H         PUBLIC        PSW
  -------         PROC          TIMER2_INIT
  C:090AH         LINE#         3
  C:090AH         LINE#         4
  C:090AH         LINE#         5
  C:090DH         LINE#         6
  C:0910H         LINE#         7
  C:0913H         LINE#         8
  C:0916H         LINE#         9
  -------         ENDPROC       TIMER2_INIT
  -------         ENDMOD        TIMER

BL51 BANKED LINKER/LOCATER V6.22                                                      03/03/2024  20:22:33  PAGE 9


  -------         MODULE        DEVICE
  C:0000H         SYMBOL        _ICE_DUMMY_
  D:0080H         PUBLIC        P0
  D:0090H         PUBLIC        P1
  D:00A0H         PUBLIC        P2
  D:00B0H         PUBLIC        P3
  D:00C0H         PUBLIC        P4
  D:00C8H         PUBLIC        P5
  D:00E8H         PUBLIC        P6
  B:00A8H.7       PUBLIC        EA
  D:00F8H         PUBLIC        P7
  D:00A8H         PUBLIC        IE
  D:00B8H         PUBLIC        IP
  D:00D8H         PUBLIC        CCON
  D:0098H         PUBLIC        SCON
  D:0088H         PUBLIC        TCON
  D:00AFH         PUBLIC        IE2
  C:08A2H         PUBLIC        Device_Init
  C:0917H         PUBLIC        _Device_Ctrl
  D:00D0H         PUBLIC        PSW
  -------         PROC          _DEVICE_CTRL
  D:0007H         SYMBOL        p2data
  D:0005H         SYMBOL        p0data
  C:0917H         LINE#         3
  C:0917H         LINE#         4
  C:0917H         LINE#         5
  C:091EH         LINE#         6
  C:0920H         LINE#         7
  C:0923H         LINE#         8
  -------         ENDPROC       _DEVICE_CTRL
  -------         PROC          DEVICE_INIT
  C:08A2H         LINE#         10
  C:08A2H         LINE#         11
  C:08A2H         LINE#         12
  C:08A9H         LINE#         13
  C:08B0H         LINE#         15
  C:08B3H         LINE#         16
  C:08B5H         LINE#         17
  -------         ENDPROC       DEVICE_INIT
  -------         ENDMOD        DEVICE

  -------         MODULE        ONEWIRE
  C:0000H         SYMBOL        _ICE_DUMMY_
  D:0080H         PUBLIC        P0
  D:0090H         PUBLIC        P1
  D:00A0H         PUBLIC        P2
  D:00B0H         PUBLIC        P3
  D:00C0H         PUBLIC        P4
  C:0888H         PUBLIC        Read_DS18B20
  D:00C8H         PUBLIC        P5
  D:00E8H         PUBLIC        P6
  D:00F8H         PUBLIC        P7
  D:00A8H         PUBLIC        IE
  C:0872H         PUBLIC        _Delay_OneWire
  C:0833H         PUBLIC        _Write_DS18B20
  B:0090H.4       PUBLIC        DQ
  D:00B8H         PUBLIC        IP
BL51 BANKED LINKER/LOCATER V6.22                                                      03/03/2024  20:22:33  PAGE 10


  C:07C0H         PUBLIC        init_ds18b20
  D:00D8H         PUBLIC        CCON
  D:0098H         PUBLIC        SCON
  D:0088H         PUBLIC        TCON
  D:00D0H         PUBLIC        PSW
  C:086EH         SYMBOL        L?0019
  -------         PROC          L?0018
  -------         ENDPROC       L?0018
  C:086EH         SYMBOL        L?0019
  -------         PROC          _DELAY_ONEWIRE
  D:0006H         SYMBOL        t
  -------         DO            
  D:0005H         SYMBOL        i
  -------         ENDDO         
  C:0872H         LINE#         8
  C:0872H         LINE#         9
  C:0872H         LINE#         11
  C:087CH         LINE#         12
  C:0887H         LINE#         13
  C:0887H         LINE#         14
  -------         ENDPROC       _DELAY_ONEWIRE
  -------         PROC          _WRITE_DS18B20
  D:0001H         SYMBOL        dat
  -------         DO            
  D:0003H         SYMBOL        i
  -------         ENDDO         
  C:0833H         LINE#         17
  C:0835H         LINE#         18
  C:0835H         LINE#         20
  C:0837H         LINE#         21
  C:0837H         LINE#         22
  C:0839H         LINE#         23
  C:083DH         LINE#         24
  C:0840H         LINE#         25
  C:0842H         LINE#         26
  C:0846H         LINE#         27
  C:084AH         LINE#         28
  -------         ENDPROC       _WRITE_DS18B20
  -------         PROC          READ_DS18B20
  -------         DO            
  D:0003H         SYMBOL        i
  D:0004H         SYMBOL        dat
  -------         ENDDO         
  C:0888H         LINE#         32
  C:0888H         LINE#         33
  C:0888H         LINE#         37
  C:088AH         LINE#         38
  C:088AH         LINE#         39
  C:088CH         LINE#         40
  C:0890H         LINE#         41
  C:0892H         LINE#         42
  C:0895H         LINE#         43
  C:0895H         LINE#         44
  C:0898H         LINE#         45
  C:0898H         LINE#         46
  C:089BH         LINE#         47
  C:089FH         LINE#         48
BL51 BANKED LINKER/LOCATER V6.22                                                      03/03/2024  20:22:33  PAGE 11


  C:08A1H         LINE#         49
  -------         ENDPROC       READ_DS18B20
  -------         PROC          INIT_DS18B20
  -------         DO            
  B:0020H.6       SYMBOL        initflag
  -------         ENDDO         
  C:07C0H         LINE#         52
  C:07C0H         LINE#         53
  C:07C0H         LINE#         54
  C:07C2H         LINE#         56
  C:07C4H         LINE#         57
  C:07CBH         LINE#         58
  C:07CDH         LINE#         59
  C:07D4H         LINE#         60
  C:07D6H         LINE#         61
  C:07DDH         LINE#         62
  C:07E1H         LINE#         63
  C:07E4H         LINE#         65
  C:07E6H         LINE#         66
  -------         ENDPROC       INIT_DS18B20
  -------         ENDMOD        ONEWIRE

  -------         MODULE        KBD
  C:0000H         SYMBOL        _ICE_DUMMY_
  D:0080H         PUBLIC        P0
  D:0090H         PUBLIC        P1
  D:00A0H         PUBLIC        P2
  D:00B0H         PUBLIC        P3
  D:00C0H         PUBLIC        P4
  D:00C8H         PUBLIC        P5
  D:00E8H         PUBLIC        P6
  D:00F8H         PUBLIC        P7
  D:00A8H         PUBLIC        IE
  D:00B8H         PUBLIC        IP
  D:00D8H         PUBLIC        CCON
  C:08FCH         PUBLIC        KBD_Read
  B:00B0H.0       PUBLIC        P30
  B:00B0H.1       PUBLIC        P31
  D:0098H         PUBLIC        SCON
  B:00B0H.2       PUBLIC        P32
  D:0088H         PUBLIC        TCON
  D:0024H         PUBLIC        cont
  B:00C0H.2       PUBLIC        P42
  B:00B0H.3       PUBLIC        P33
  B:00B0H.4       PUBLIC        P34
  B:00C0H.4       PUBLIC        P44
  B:00B0H.5       PUBLIC        P35
  D:0025H         PUBLIC        pres
  C:0652H         PUBLIC        KBD_IO
  D:00D0H         PUBLIC        PSW
  -------         PROC          KBD_IO
  -------         DO            
  D:0007H         SYMBOL        io
  -------         ENDDO         
  C:0652H         LINE#         3
  C:0652H         LINE#         4
  C:0652H         LINE#         5
BL51 BANKED LINKER/LOCATER V6.22                                                      03/03/2024  20:22:33  PAGE 12


  C:0654H         LINE#         7
  C:065CH         LINE#         8
  C:0664H         LINE#         9
  C:0669H         LINE#         10
  C:066EH         LINE#         11
  C:0673H         LINE#         12
  C:0678H         LINE#         14
  C:0680H         LINE#         15
  C:0688H         LINE#         16
  C:068EH         LINE#         17
  C:0694H         LINE#         18
  C:069AH         LINE#         19
  C:06A0H         LINE#         21
  C:06A0H         LINE#         22
  -------         ENDPROC       KBD_IO
  -------         PROC          KBD_READ
  -------         DO            
  D:0007H         SYMBOL        state
  -------         ENDDO         
  C:08FCH         LINE#         25
  C:08FCH         LINE#         26
  C:08FCH         LINE#         27
  C:0902H         LINE#         28
  C:0907H         LINE#         29
  C:0909H         LINE#         30
  -------         ENDPROC       KBD_READ
  -------         ENDMOD        KBD

  -------         MODULE        SEG
  C:0000H         SYMBOL        _ICE_DUMMY_
  D:0080H         PUBLIC        P0
  D:0090H         PUBLIC        P1
  D:00A0H         PUBLIC        P2
  D:00B0H         PUBLIC        P3
  D:00C0H         PUBLIC        P4
  D:00C8H         PUBLIC        P5
  D:00E8H         PUBLIC        P6
  D:00F8H         PUBLIC        P7
  D:00A8H         PUBLIC        IE
  D:00B8H         PUBLIC        IP
  C:073FH         PUBLIC        SEG_Display
  D:00D8H         PUBLIC        CCON
  D:0098H         PUBLIC        SCON
  D:0088H         PUBLIC        TCON
  C:08DDH         PUBLIC        tab
  D:0018H         PUBLIC        seg_buf
  D:00D0H         PUBLIC        PSW
  -------         PROC          SEG_DISPLAY
  -------         DO            
  D:0017H         SYMBOL        i
  -------         ENDDO         
  C:073FH         LINE#         24
  C:073FH         LINE#         25
  C:073FH         LINE#         27
  C:0746H         LINE#         28
  C:0752H         LINE#         29
  C:0765H         LINE#         30
BL51 BANKED LINKER/LOCATER V6.22                                                      03/03/2024  20:22:33  PAGE 13


  C:076CH         LINE#         31
  -------         ENDPROC       SEG_DISPLAY
  -------         ENDMOD        SEG

  -------         MODULE        DS1302
  C:0000H         SYMBOL        _ICE_DUMMY_
  D:0080H         PUBLIC        P0
  D:0090H         PUBLIC        P1
  D:00A0H         PUBLIC        P2
  D:00B0H         PUBLIC        P3
  D:00C0H         PUBLIC        P4
  D:00C8H         PUBLIC        P5
  D:00E8H         PUBLIC        P6
  D:00F8H         PUBLIC        P7
  D:00A8H         PUBLIC        IE
  D:00B8H         PUBLIC        IP
  D:00D8H         PUBLIC        CCON
  D:0098H         PUBLIC        SCON
  D:0088H         PUBLIC        TCON
  C:0798H         PUBLIC        _DS1302_Read
  C:070BH         PUBLIC        _Read_Ds1302_Byte
  B:00A0H.3       PUBLIC        SDA
  B:0090H.7       PUBLIC        SCK
  C:08B6H         PUBLIC        _Write_Ds1302_Byte
  C:06A1H         PUBLIC        _DS1302_Set
  C:08CAH         PUBLIC        _Write_Ds1302
  B:0090H.3       PUBLIC        RST
  D:00D0H         PUBLIC        PSW
  -------         PROC          _WRITE_DS1302
  D:0007H         SYMBOL        temp
  -------         DO            
  D:0006H         SYMBOL        i
  -------         ENDDO         
  C:08CAH         LINE#         3
  C:08CAH         LINE#         4
  C:08CAH         LINE#         6
  C:08CCH         LINE#         7
  C:08CCH         LINE#         8
  C:08CEH         LINE#         9
  C:08D2H         LINE#         10
  C:08D6H         LINE#         11
  C:08D8H         LINE#         12
  C:08DCH         LINE#         13
  -------         ENDPROC       _WRITE_DS1302
  -------         PROC          _WRITE_DS1302_BYTE
  D:0007H         SYMBOL        address
  D:0005H         SYMBOL        dat
  C:08B6H         LINE#         15
  C:08B6H         LINE#         16
  C:08B6H         LINE#         17
  C:08B9H         LINE#         18
  C:08BCH         LINE#         19
  C:08BFH         LINE#         20
  C:08C2H         LINE#         21
  C:08C7H         LINE#         22
  C:08C9H         LINE#         23
  -------         ENDPROC       _WRITE_DS1302_BYTE
BL51 BANKED LINKER/LOCATER V6.22                                                      03/03/2024  20:22:33  PAGE 14


  -------         PROC          _READ_DS1302_BYTE
  D:0007H         SYMBOL        address
  -------         DO            
  D:0007H         SYMBOL        i
  D:0005H         SYMBOL        temp
  -------         ENDDO         
  C:070BH         LINE#         25
  C:070BH         LINE#         26
  C:070BH         LINE#         27
  C:070DH         LINE#         28
  C:0710H         LINE#         29
  C:0713H         LINE#         30
  C:0716H         LINE#         31
  C:0719H         LINE#         32
  C:071BH         LINE#         33
  C:071BH         LINE#         34
  C:071DH         LINE#         35
  C:0721H         LINE#         36
  C:0724H         LINE#         37
  C:0727H         LINE#         38
  C:0729H         LINE#         39
  C:072DH         LINE#         40
  C:0730H         LINE#         41
  C:0733H         LINE#         42
  C:0736H         LINE#         43
  C:0739H         LINE#         44
  C:073CH         LINE#         45
  C:073EH         LINE#         46
  -------         ENDPROC       _READ_DS1302_BYTE
  -------         PROC          _DS1302_SET
  D:0021H         SYMBOL        time
  -------         DO            
  D:0004H         SYMBOL        i
  -------         ENDDO         
  C:06A1H         LINE#         49
  C:06A7H         LINE#         50
  C:06A7H         LINE#         52
  C:06AEH         LINE#         54
  C:06B0H         LINE#         55
  C:06CBH         LINE#         56
  C:06CFH         LINE#         58
  -------         ENDPROC       _DS1302_SET
  -------         PROC          _DS1302_READ
  D:0021H         SYMBOL        time
  -------         DO            
  D:0004H         SYMBOL        i
  -------         ENDDO         
  C:0798H         LINE#         61
  C:079EH         LINE#         62
  C:079EH         LINE#         64
  C:07A0H         LINE#         65
  C:07BBH         LINE#         66
  C:07BFH         LINE#         67
  -------         ENDPROC       _DS1302_READ
  -------         ENDMOD        DS1302

  -------         MODULE        DS18B20
BL51 BANKED LINKER/LOCATER V6.22                                                      03/03/2024  20:22:33  PAGE 15


  C:0000H         SYMBOL        _ICE_DUMMY_
  D:0080H         PUBLIC        P0
  D:0090H         PUBLIC        P1
  D:00A0H         PUBLIC        P2
  D:00B0H         PUBLIC        P3
  D:00C0H         PUBLIC        P4
  D:00C8H         PUBLIC        P5
  D:00E8H         PUBLIC        P6
  D:00F8H         PUBLIC        P7
  D:00A8H         PUBLIC        IE
  D:00B8H         PUBLIC        IP
  D:00D8H         PUBLIC        CCON
  D:0098H         PUBLIC        SCON
  D:0088H         PUBLIC        TCON
  C:06D6H         PUBLIC        Read_Temper
  D:00D0H         PUBLIC        PSW
  -------         PROC          READ_TEMPER
  -------         DO            
  D:0021H         SYMBOL        low
  D:0007H         SYMBOL        high
  -------         ENDDO         
  C:06D6H         LINE#         3
  C:06D6H         LINE#         4
  C:06D6H         LINE#         7
  C:06D9H         LINE#         8
  C:06DEH         LINE#         9
  C:06E3H         LINE#         11
  C:06E6H         LINE#         12
  C:06EBH         LINE#         13
  C:06F0H         LINE#         15
  C:06F5H         LINE#         16
  C:06F8H         LINE#         18
  C:070AH         LINE#         19
  -------         ENDPROC       READ_TEMPER
  -------         ENDMOD        DS18B20

  -------         MODULE        ?C?FPMUL
  C:0066H         PUBLIC        ?C?FPMUL
  -------         ENDMOD        ?C?FPMUL

  -------         MODULE        ?C?FPDIV
  C:016FH         PUBLIC        ?C?FPDIV
  -------         ENDMOD        ?C?FPDIV

  -------         MODULE        ?C?FPCMP
  C:020EH         PUBLIC        ?C?FPCMP
  C:020CH         PUBLIC        ?C?FPCMP3
  -------         ENDMOD        ?C?FPCMP

  -------         MODULE        ?C?FCAST
  C:028FH         PUBLIC        ?C?FCASTC
  C:028AH         PUBLIC        ?C?FCASTI
  C:0285H         PUBLIC        ?C?FCASTL
  -------         ENDMOD        ?C?FCAST

  -------         MODULE        ?C?CASTF
  C:02C3H         PUBLIC        ?C?CASTF
BL51 BANKED LINKER/LOCATER V6.22                                                      03/03/2024  20:22:33  PAGE 16


  -------         ENDMOD        ?C?CASTF

  -------         MODULE        ?C?CLDOPTR
  C:0344H         PUBLIC        ?C?CLDOPTR
  -------         ENDMOD        ?C?CLDOPTR

  -------         MODULE        ?C?CSTOPTR
  C:0371H         PUBLIC        ?C?CSTOPTR
  -------         ENDMOD        ?C?CSTOPTR

  -------         MODULE        ?C?LNEG
  C:0393H         PUBLIC        ?C?LNEG
  -------         ENDMOD        ?C?LNEG

Program Size: data=38.7 xdata=0 code=2328
LINK/LOCATE RUN COMPLETE.  0 WARNING(S),  0 ERROR(S)
